; Function Attrs: mustprogress nounwind uwtable
define hidden void @_ZN16MemoryGraphFixer15record_new_ctrlEP4NodeS1_S1_S1_(ptr noundef nonnull align 8 dereferenceable(49) %0, ptr noundef readonly %1, ptr noundef readonly %2, ptr noundef %3, ptr noundef %4) local_unnamed_addr #0 align 2 {
  %.not = icmp eq ptr %4, %3
  %.not12 = icmp eq ptr %2, %1
  %or.cond = or i1 %.not12, %.not
  br i1 %or.cond, label %23, label %6

6:                                                ; preds = %5
  %7 = getelementptr inbounds i8, ptr %1, i64 40
  %8 = load i32, ptr %7, align 8
  %9 = getelementptr inbounds i8, ptr %0, i64 8
  %10 = load i32, ptr %9, align 8
  %.not.i = icmp ugt i32 %10, %8
  br i1 %.not.i, label %_ZN10Node_Array3mapEjP4Node.exit, label %11

11:                                               ; preds = %6
  tail call void @_ZN10Node_Array4growEj(ptr noundef nonnull align 8 dereferenceable(24) %0, i32 noundef %8) #10
  br label %_ZN10Node_Array3mapEjP4Node.exit

_ZN10Node_Array3mapEjP4Node.exit:                 ; preds = %6, %11
  %12 = getelementptr inbounds i8, ptr %0, i64 16
  %13 = load ptr, ptr %12, align 8
  %14 = zext i32 %8 to i64
  %15 = getelementptr inbounds ptr, ptr %13, i64 %14
  store ptr %3, ptr %15, align 8
  %16 = getelementptr inbounds i8, ptr %2, i64 40
  %17 = load i32, ptr %16, align 8
  %18 = load i32, ptr %9, align 8
  %.not.i13 = icmp ugt i32 %18, %17
  br i1 %.not.i13, label %_ZN10Node_Array3mapEjP4Node.exit14, label %19

19:                                               ; preds = %_ZN10Node_Array3mapEjP4Node.exit
  tail call void @_ZN10Node_Array4growEj(ptr noundef nonnull align 8 dereferenceable(24) %0, i32 noundef %17) #10
  br label %_ZN10Node_Array3mapEjP4Node.exit14

_ZN10Node_Array3mapEjP4Node.exit14:               ; preds = %_ZN10Node_Array3mapEjP4Node.exit, %19
  %20 = load ptr, ptr %12, align 8
  %21 = zext i32 %17 to i64
  %22 = getelementptr inbounds ptr, ptr %20, i64 %21
  store ptr %4, ptr %22, align 8
  br label %23

23:                                               ; preds = %_ZN10Node_Array3mapEjP4Node.exit14, %5
  ret void
}